target datalayout = "e-m:e-p270:32:32-p271:32:32-p272:64:64-i64:64-i128:128-f80:128-n8:16:32:64-S128"
target triple = "x86_64-pc-linux-gnu"

%struct.srp_arg_st = type { ptr, ptr, i32, i32, i32, i32 }
%struct.pw_cb_data = type { ptr, ptr }

@bio_err = external global ptr, align 8
@.str.5 = private unnamed_addr constant [20 x i8] c"SRP password buffer\00", align 1
@.str.6 = private unnamed_addr constant [9 x i8] c"SRP user\00", align 1
@.str.7 = private unnamed_addr constant [21 x i8] c"Can't read Password\0A\00", align 1
@.str.8 = private unnamed_addr constant [34 x i8] c"../openssl/apps/lib/tlssrp_depr.c\00", align 1

; Function Attrs: nounwind uwtable
define internal ptr @ssl_give_srp_client_pwd_cb(ptr noundef %0, ptr noundef %1) #0 {
  %3 = alloca ptr, align 8
  %4 = alloca ptr, align 8
  %5 = alloca ptr, align 8
  %6 = alloca ptr, align 8
  %7 = alloca ptr, align 8
  %8 = alloca %struct.pw_cb_data, align 8
  %9 = alloca i32, align 4
  %10 = alloca i32, align 4
  store ptr %0, ptr %4, align 8, !tbaa !21
  store ptr %1, ptr %5, align 8, !tbaa !23
  call void @llvm.lifetime.start.p0(i64 8, ptr %6) #3
  %11 = load ptr, ptr %5, align 8, !tbaa !23
  store ptr %11, ptr %6, align 8, !tbaa !8
  call void @llvm.lifetime.start.p0(i64 8, ptr %7) #3
  %12 = call ptr @app_malloc(i64 noundef 1025, ptr noundef @.str.5)
  store ptr %12, ptr %7, align 8, !tbaa !24
  call void @llvm.lifetime.start.p0(i64 16, ptr %8) #3
  call void @llvm.lifetime.start.p0(i64 4, ptr %9) #3
  %13 = load ptr, ptr %6, align 8, !tbaa !8
  %14 = getelementptr inbounds nuw %struct.srp_arg_st, ptr %13, i32 0, i32 0
  %15 = load ptr, ptr %14, align 8, !tbaa !25
  %16 = getelementptr inbounds nuw %struct.pw_cb_data, ptr %8, i32 0, i32 0
  store ptr %15, ptr %16, align 8, !tbaa !26
  %17 = getelementptr inbounds nuw %struct.pw_cb_data, ptr %8, i32 0, i32 1
  store ptr @.str.6, ptr %17, align 8, !tbaa !28
  %18 = load ptr, ptr %7, align 8, !tbaa !24
  %19 = call i32 @password_callback(ptr noundef %18, i32 noundef 1024, i32 noundef 0, ptr noundef %8)
  store i32 %19, ptr %9, align 4, !tbaa !10
  %20 = icmp slt i32 %19, 0
  br i1 %20, label %21, label %25

21:                                               ; preds = %2
  %22 = load ptr, ptr @bio_err, align 8, !tbaa !15
  %23 = call i32 (ptr, ptr, ...) @BIO_printf(ptr noundef %22, ptr noundef @.str.7)
  %24 = load ptr, ptr %7, align 8, !tbaa !24
  call void @CRYPTO_free(ptr noundef %24, ptr noundef @.str.8, i32 noundef 114)
  store ptr null, ptr %3, align 8
  store i32 1, ptr %10, align 4
  br label %31

25:                                               ; preds = %2
  %26 = load ptr, ptr %7, align 8, !tbaa !24
  %27 = load i32, ptr %9, align 4, !tbaa !10
  %28 = sext i32 %27 to i64
  %29 = getelementptr inbounds i8, ptr %26, i64 %28
  store i8 0, ptr %29, align 1, !tbaa !29
  %30 = load ptr, ptr %7, align 8, !tbaa !24
  store ptr %30, ptr %3, align 8
  store i32 1, ptr %10, align 4
  br label %31

31:                                               ; preds = %25, %21
  call void @llvm.lifetime.end.p0(i64 4, ptr %9) #3
  call void @llvm.lifetime.end.p0(i64 16, ptr %8) #3
  call void @llvm.lifetime.end.p0(i64 8, ptr %7) #3
  call void @llvm.lifetime.end.p0(i64 8, ptr %6) #3
  %32 = load ptr, ptr %3, align 8
  ret ptr %32
}