; Function Attrs: nounwind uwtable
define internal noundef ptr @ssl_give_srp_client_pwd_cb(ptr readnone captures(none) %0, ptr noundef readonly captures(none) %1) #0 {
  %3 = alloca %struct.pw_cb_data, align 8
  %4 = tail call ptr @app_malloc(i64 noundef 1025, ptr noundef nonnull @.str.5) #4
  call void @llvm.lifetime.start.p0(i64 16, ptr nonnull %3) #4
  %5 = load ptr, ptr %1, align 8, !tbaa !18
  store ptr %5, ptr %3, align 8, !tbaa !19
  %6 = getelementptr inbounds nuw i8, ptr %3, i64 8
  store ptr @.str.6, ptr %6, align 8, !tbaa !21
  %7 = call i32 @password_callback(ptr noundef %4, i32 noundef 1024, i32 noundef 0, ptr noundef nonnull %3) #4
  %8 = icmp slt i32 %7, 0
  br i1 %8, label %9, label %12

9:                                                ; preds = %2
  %10 = load ptr, ptr @bio_err, align 8, !tbaa !12
  %11 = call i32 (ptr, ptr, ...) @BIO_printf(ptr noundef %10, ptr noundef nonnull @.str.7) #4
  call void @CRYPTO_free(ptr noundef %4, ptr noundef nonnull @.str.8, i32 noundef 114) #4
  br label %15

12:                                               ; preds = %2
  %13 = zext nneg i32 %7 to i64
  %14 = getelementptr inbounds nuw i8, ptr %4, i64 %13
  store i8 0, ptr %14, align 1, !tbaa !22
  br label %15

15:                                               ; preds = %12, %9
  %.0 = phi ptr [ null, %9 ], [ %4, %12 ]
  call void @llvm.lifetime.end.p0(i64 16, ptr nonnull %3) #4
  ret ptr %.0
}